target datalayout = "e-m:e-p270:32:32-p271:32:32-p272:64:64-i64:64-i128:128-f80:128-n8:16:32:64-S128"
target triple = "x86_64-pc-linux-gnu"

%struct.lua_State = type { %struct.GCRef, i8, i8, i8, i8, %struct.MRef, %struct.GCRef, ptr, ptr, %struct.MRef, %struct.MRef, %struct.GCRef, %struct.GCRef, ptr, i32 }
%struct.MRef = type { i64 }
%struct.GCRef = type { i64 }
%union.TValue = type { i64 }
%struct.SBufExt = type { ptr, ptr, ptr, %struct.MRef, %union.anon.2, ptr, %struct.GCRef, %struct.GCRef, i32 }
%union.anon.2 = type { %struct.GCRef }
%struct.GCstr = type { %struct.GCRef, i8, i8, i8, i8, i32, i32, i32 }
%struct.GChead = type { %struct.GCRef, i8, i8, i8, i8, %struct.GCRef, %struct.GCRef, %struct.GCRef }
%struct.GCudata = type { %struct.GCRef, i8, i8, i8, i8, %struct.GCRef, i32, %struct.GCRef, i32 }
%struct.global_State = type { ptr, ptr, %struct.GCState, %struct.GCstr, i8, i8, i8, i8, %struct.StrInternState, i32, %struct.GCRef, %struct.SBuf, %union.TValue, %union.TValue, %struct.Node, %union.TValue, %struct.GCupval, i32, i32, ptr, ptr, ptr, i32, i32, %struct.GCRef, %struct.MRef, %struct.MRef, %struct.PRNGState, [39 x %struct.GCRef] }
%struct.GCState = type { i64, i64, i8, i8, i8, i8, i32, %struct.GCRef, %struct.MRef, %struct.GCRef, %struct.GCRef, %struct.GCRef, %struct.GCRef, i64, i64, i32, i32, %struct.MRef }
%struct.StrInternState = type { ptr, i32, i32, i32, i8, i8, i8, i8, i64 }
%struct.SBuf = type { ptr, ptr, ptr, %struct.MRef }
%struct.Node = type { %union.TValue, %union.TValue, %struct.MRef }
%struct.GCupval = type { %struct.GCRef, i8, i8, i8, i8, %union.anon, %struct.MRef, i32 }
%union.anon = type { %struct.anon.1 }
%struct.anon.1 = type { %struct.GCRef, %struct.GCRef }
%struct.PRNGState = type { [4 x i64] }
%struct.CTState = type { ptr, i32, i32, ptr, ptr, ptr, %struct.CCallback, [128 x i16] }
%struct.CCallback = type { [8 x %union.FPRCBArg], [8 x i64], ptr, ptr, ptr, i32, i32, i32 }
%union.FPRCBArg = type { double }
%struct.CType = type { i32, i32, i16, i16, %struct.GCRef }

@.str.2 = private unnamed_addr constant [7 x i8] c"buffer\00", align 1

; Function Attrs: alwaysinline nounwind uwtable
define internal void @lj_mem_free(ptr noundef %0, ptr noundef %1, i64 noundef %2) #3 {
  %4 = alloca ptr, align 8
  %5 = alloca ptr, align 8
  %6 = alloca i64, align 8
  store ptr %0, ptr %4, align 8, !tbaa !58
  store ptr %1, ptr %5, align 8, !tbaa !56
  store i64 %2, ptr %6, align 8, !tbaa !37
  %7 = load i64, ptr %6, align 8, !tbaa !37
  %8 = load ptr, ptr %4, align 8, !tbaa !58
  %9 = getelementptr inbounds nuw %struct.global_State, ptr %8, i32 0, i32 2
  %10 = getelementptr inbounds nuw %struct.GCState, ptr %9, i32 0, i32 0
  %11 = load i64, ptr %10, align 8, !tbaa !41
  %12 = sub i64 %11, %7
  store i64 %12, ptr %10, align 8, !tbaa !41
  %13 = load ptr, ptr %4, align 8, !tbaa !58
  %14 = getelementptr inbounds nuw %struct.global_State, ptr %13, i32 0, i32 0
  %15 = load ptr, ptr %14, align 8, !tbaa !60
  %16 = load ptr, ptr %4, align 8, !tbaa !58
  %17 = getelementptr inbounds nuw %struct.global_State, ptr %16, i32 0, i32 1
  %18 = load ptr, ptr %17, align 8, !tbaa !61
  %19 = load ptr, ptr %5, align 8, !tbaa !56
  %20 = load i64, ptr %6, align 8, !tbaa !37
  %21 = call ptr %15(ptr noundef %18, ptr noundef %19, i64 noundef %20, i64 noundef 0)
  ret void
}

; Function Attrs: alwaysinline nounwind uwtable
define internal i32 @ctype_check(ptr noundef %0, i32 noundef %1) #3 {
  %3 = alloca ptr, align 8
  %4 = alloca i32, align 4
  store ptr %0, ptr %3, align 8, !tbaa !27
  store i32 %1, ptr %4, align 4, !tbaa !19
  %5 = load i32, ptr %4, align 4, !tbaa !19
  ret i32 %5
}

; Function Attrs: alwaysinline nounwind uwtable
define internal void @lj_bufx_set_cow(ptr noundef %0, ptr noundef %1, ptr noundef %2, i32 noundef %3) #3 {
  %5 = alloca ptr, align 8
  %6 = alloca ptr, align 8
  %7 = alloca ptr, align 8
  %8 = alloca i32, align 4
  store ptr %0, ptr %5, align 8, !tbaa !4
  store ptr %1, ptr %6, align 8, !tbaa !9
  store ptr %2, ptr %7, align 8, !tbaa !31
  store i32 %3, ptr %8, align 4, !tbaa !19
  %9 = load ptr, ptr %5, align 8, !tbaa !4
  %10 = ptrtoint ptr %9 to i64
  %11 = add i64 %10, 3
  %12 = load ptr, ptr %6, align 8, !tbaa !9
  %13 = getelementptr inbounds nuw %struct.SBufExt, ptr %12, i32 0, i32 3
  %14 = getelementptr inbounds nuw %struct.MRef, ptr %13, i32 0, i32 0
  store i64 %11, ptr %14, align 8, !tbaa !24
  %15 = load ptr, ptr %7, align 8, !tbaa !31
  %16 = load ptr, ptr %6, align 8, !tbaa !9
  %17 = getelementptr inbounds nuw %struct.SBufExt, ptr %16, i32 0, i32 2
  store ptr %15, ptr %17, align 8, !tbaa !25
  %18 = load ptr, ptr %6, align 8, !tbaa !9
  %19 = getelementptr inbounds nuw %struct.SBufExt, ptr %18, i32 0, i32 5
  store ptr %15, ptr %19, align 8, !tbaa !23
  %20 = load ptr, ptr %7, align 8, !tbaa !31
  %21 = load i32, ptr %8, align 4, !tbaa !19
  %22 = zext i32 %21 to i64
  %23 = getelementptr inbounds nuw i8, ptr %20, i64 %22
  %24 = load ptr, ptr %6, align 8, !tbaa !9
  %25 = getelementptr inbounds nuw %struct.SBufExt, ptr %24, i32 0, i32 1
  store ptr %23, ptr %25, align 8, !tbaa !57
  %26 = load ptr, ptr %6, align 8, !tbaa !9
  %27 = getelementptr inbounds nuw %struct.SBufExt, ptr %26, i32 0, i32 0
  store ptr %23, ptr %27, align 8, !tbaa !20
  ret void
}

; Function Attrs: alwaysinline nounwind uwtable
define internal void @lj_bufx_free(ptr noundef %0, ptr noundef %1) #3 {
  %3 = alloca ptr, align 8
  %4 = alloca ptr, align 8
  store ptr %0, ptr %3, align 8, !tbaa !4
  store ptr %1, ptr %4, align 8, !tbaa !9
  %5 = load ptr, ptr %4, align 8, !tbaa !9
  %6 = getelementptr inbounds nuw %struct.SBufExt, ptr %5, i32 0, i32 3
  %7 = getelementptr inbounds nuw %struct.MRef, ptr %6, i32 0, i32 0
  %8 = load i64, ptr %7, align 8, !tbaa !24
  %9 = and i64 %8, 6
  %10 = icmp ne i64 %9, 0
  br i1 %10, label %31, label %11

11:                                               ; preds = %2
  %12 = load ptr, ptr %3, align 8, !tbaa !4
  %13 = getelementptr inbounds nuw %struct.lua_State, ptr %12, i32 0, i32 5
  %14 = getelementptr inbounds nuw %struct.MRef, ptr %13, i32 0, i32 0
  %15 = load i64, ptr %14, align 8, !tbaa !36
  %16 = inttoptr i64 %15 to ptr
  %17 = load ptr, ptr %4, align 8, !tbaa !9
  %18 = getelementptr inbounds nuw %struct.SBufExt, ptr %17, i32 0, i32 2
  %19 = load ptr, ptr %18, align 8, !tbaa !25
  %20 = load ptr, ptr %4, align 8, !tbaa !9
  %21 = getelementptr inbounds nuw %struct.SBufExt, ptr %20, i32 0, i32 1
  %22 = load ptr, ptr %21, align 8, !tbaa !57
  %23 = load ptr, ptr %4, align 8, !tbaa !9
  %24 = getelementptr inbounds nuw %struct.SBufExt, ptr %23, i32 0, i32 2
  %25 = load ptr, ptr %24, align 8, !tbaa !25
  %26 = ptrtoint ptr %22 to i64
  %27 = ptrtoint ptr %25 to i64
  %28 = sub i64 %26, %27
  %29 = trunc i64 %28 to i32
  %30 = zext i32 %29 to i64
  call void @lj_mem_free(ptr noundef %16, ptr noundef %19, i64 noundef %30)
  br label %31

31:                                               ; preds = %11, %2
  %32 = load ptr, ptr %3, align 8, !tbaa !4
  %33 = ptrtoint ptr %32 to i64
  %34 = add i64 %33, 1
  %35 = load ptr, ptr %4, align 8, !tbaa !9
  %36 = getelementptr inbounds nuw %struct.SBufExt, ptr %35, i32 0, i32 3
  %37 = getelementptr inbounds nuw %struct.MRef, ptr %36, i32 0, i32 0
  store i64 %34, ptr %37, align 8, !tbaa !24
  %38 = load ptr, ptr %4, align 8, !tbaa !9
  %39 = getelementptr inbounds nuw %struct.SBufExt, ptr %38, i32 0, i32 4
  %40 = getelementptr inbounds nuw %struct.GCRef, ptr %39, i32 0, i32 0
  store i64 0, ptr %40, align 8, !tbaa !26
  %41 = load ptr, ptr %4, align 8, !tbaa !9
  %42 = getelementptr inbounds nuw %struct.SBufExt, ptr %41, i32 0, i32 1
  store ptr null, ptr %42, align 8, !tbaa !57
  %43 = load ptr, ptr %4, align 8, !tbaa !9
  %44 = getelementptr inbounds nuw %struct.SBufExt, ptr %43, i32 0, i32 2
  store ptr null, ptr %44, align 8, !tbaa !25
  %45 = load ptr, ptr %4, align 8, !tbaa !9
  %46 = getelementptr inbounds nuw %struct.SBufExt, ptr %45, i32 0, i32 0
  store ptr null, ptr %46, align 8, !tbaa !20
  %47 = load ptr, ptr %4, align 8, !tbaa !9
  %48 = getelementptr inbounds nuw %struct.SBufExt, ptr %47, i32 0, i32 5
  store ptr null, ptr %48, align 8, !tbaa !23
  ret void
}

; Function Attrs: alwaysinline nounwind uwtable
define internal ptr @ctype_get(ptr noundef %0, i32 noundef %1) #3 {
  %3 = alloca ptr, align 8
  %4 = alloca i32, align 4
  store ptr %0, ptr %3, align 8, !tbaa !27
  store i32 %1, ptr %4, align 4, !tbaa !19
  %5 = load ptr, ptr %3, align 8, !tbaa !27
  %6 = getelementptr inbounds nuw %struct.CTState, ptr %5, i32 0, i32 0
  %7 = load ptr, ptr %6, align 8, !tbaa !69
  %8 = load ptr, ptr %3, align 8, !tbaa !27
  %9 = load i32, ptr %4, align 4, !tbaa !19
  %10 = call i32 @ctype_check(ptr noundef %8, i32 noundef %9)
  %11 = zext i32 %10 to i64
  %12 = getelementptr inbounds nuw %struct.CType, ptr %7, i64 %11
  ret ptr %12
}

; Function Attrs: alwaysinline nounwind uwtable
define internal ptr @ctype_cts(ptr noundef %0) #3 {
  %2 = alloca ptr, align 8
  %3 = alloca ptr, align 8
  store ptr %0, ptr %2, align 8, !tbaa !4
  call void @llvm.lifetime.start.p0(i64 8, ptr %3) #8
  %4 = load ptr, ptr %2, align 8, !tbaa !4
  %5 = getelementptr inbounds nuw %struct.lua_State, ptr %4, i32 0, i32 5
  %6 = getelementptr inbounds nuw %struct.MRef, ptr %5, i32 0, i32 0
  %7 = load i64, ptr %6, align 8, !tbaa !36
  %8 = inttoptr i64 %7 to ptr
  %9 = getelementptr inbounds nuw %struct.global_State, ptr %8, i32 0, i32 26
  %10 = getelementptr inbounds nuw %struct.MRef, ptr %9, i32 0, i32 0
  %11 = load i64, ptr %10, align 8, !tbaa !52
  %12 = inttoptr i64 %11 to ptr
  store ptr %12, ptr %3, align 8, !tbaa !27
  %13 = load ptr, ptr %2, align 8, !tbaa !4
  %14 = load ptr, ptr %3, align 8, !tbaa !27
  %15 = getelementptr inbounds nuw %struct.CTState, ptr %14, i32 0, i32 3
  store ptr %13, ptr %15, align 8, !tbaa !62
  %16 = load ptr, ptr %3, align 8, !tbaa !27
  call void @llvm.lifetime.end.p0(i64 8, ptr %3) #8
  ret ptr %16
}

; Function Attrs: nounwind uwtable
define internal ptr @buffer_tobuf(ptr noundef %0) #0 {
  %2 = alloca ptr, align 8
  store ptr %0, ptr %2, align 8, !tbaa !4
  %3 = load ptr, ptr %2, align 8, !tbaa !4
  %4 = getelementptr inbounds nuw %struct.lua_State, ptr %3, i32 0, i32 7
  %5 = load ptr, ptr %4, align 8, !tbaa !11
  %6 = load ptr, ptr %2, align 8, !tbaa !4
  %7 = getelementptr inbounds nuw %struct.lua_State, ptr %6, i32 0, i32 8
  %8 = load ptr, ptr %7, align 8, !tbaa !18
  %9 = icmp ult ptr %5, %8
  br i1 %9, label %10, label %30

10:                                               ; preds = %1
  %11 = load ptr, ptr %2, align 8, !tbaa !4
  %12 = getelementptr inbounds nuw %struct.lua_State, ptr %11, i32 0, i32 7
  %13 = load ptr, ptr %12, align 8, !tbaa !11
  %14 = load i64, ptr %13, align 8, !tbaa !26
  %15 = ashr i64 %14, 47
  %16 = trunc i64 %15 to i32
  %17 = icmp eq i32 %16, -13
  br i1 %17, label %18, label %30

18:                                               ; preds = %10
  %19 = load ptr, ptr %2, align 8, !tbaa !4
  %20 = getelementptr inbounds nuw %struct.lua_State, ptr %19, i32 0, i32 7
  %21 = load ptr, ptr %20, align 8, !tbaa !11
  %22 = getelementptr inbounds nuw %struct.GCRef, ptr %21, i32 0, i32 0
  %23 = load i64, ptr %22, align 8, !tbaa !26
  %24 = and i64 %23, 140737488355327
  %25 = inttoptr i64 %24 to ptr
  %26 = getelementptr inbounds nuw %struct.GCudata, ptr %25, i32 0, i32 3
  %27 = load i8, ptr %26, align 2, !tbaa !26
  %28 = zext i8 %27 to i32
  %29 = icmp eq i32 %28, 3
  br i1 %29, label %32, label %30

30:                                               ; preds = %18, %10, %1
  %31 = load ptr, ptr %2, align 8, !tbaa !4
  call void @lj_err_argtype(ptr noundef %31, i32 noundef 1, ptr noundef @.str.2) #9
  unreachable

32:                                               ; preds = %18
  %33 = load ptr, ptr %2, align 8, !tbaa !4
  %34 = getelementptr inbounds nuw %struct.lua_State, ptr %33, i32 0, i32 7
  %35 = load ptr, ptr %34, align 8, !tbaa !11
  %36 = getelementptr inbounds nuw %struct.GCRef, ptr %35, i32 0, i32 0
  %37 = load i64, ptr %36, align 8, !tbaa !26
  %38 = and i64 %37, 140737488355327
  %39 = inttoptr i64 %38 to ptr
  %40 = getelementptr inbounds %struct.GCudata, ptr %39, i64 1
  ret ptr %40
}

; Function Attrs: nounwind uwtable
define internal i32 @lj_cf_buffer_method_set(ptr noundef %0) #0 {
  %2 = alloca ptr, align 8
  %3 = alloca ptr, align 8
  %4 = alloca ptr, align 8
  %5 = alloca ptr, align 8
  %6 = alloca i32, align 4
  %7 = alloca ptr, align 8
  %8 = alloca ptr, align 8
  store ptr %0, ptr %2, align 8, !tbaa !4
  call void @llvm.lifetime.start.p0(i64 8, ptr %3) #8
  %9 = load ptr, ptr %2, align 8, !tbaa !4
  %10 = call ptr @buffer_tobuf(ptr noundef %9)
  store ptr %10, ptr %3, align 8, !tbaa !9
  call void @llvm.lifetime.start.p0(i64 8, ptr %4) #8
  call void @llvm.lifetime.start.p0(i64 8, ptr %5) #8
  call void @llvm.lifetime.start.p0(i64 4, ptr %6) #8
  %11 = load ptr, ptr %2, align 8, !tbaa !4
  %12 = getelementptr inbounds nuw %struct.lua_State, ptr %11, i32 0, i32 7
  %13 = load ptr, ptr %12, align 8, !tbaa !11
  %14 = getelementptr inbounds %union.TValue, ptr %13, i64 1
  %15 = load i64, ptr %14, align 8, !tbaa !26
  %16 = ashr i64 %15, 47
  %17 = trunc i64 %16 to i32
  %18 = icmp eq i32 %17, -11
  br i1 %18, label %19, label %31

19:                                               ; preds = %1
  call void @llvm.lifetime.start.p0(i64 8, ptr %7) #8
  %20 = load ptr, ptr %2, align 8, !tbaa !4
  %21 = call ptr @ctype_cts(ptr noundef %20)
  store ptr %21, ptr %7, align 8, !tbaa !27
  %22 = load ptr, ptr %7, align 8, !tbaa !27
  %23 = load ptr, ptr %7, align 8, !tbaa !27
  %24 = call ptr @ctype_get(ptr noundef %23, i32 noundef 18)
  %25 = load ptr, ptr %2, align 8, !tbaa !4
  %26 = getelementptr inbounds nuw %struct.lua_State, ptr %25, i32 0, i32 7
  %27 = load ptr, ptr %26, align 8, !tbaa !11
  %28 = getelementptr inbounds %union.TValue, ptr %27, i64 1
  call void @lj_cconv_ct_tv(ptr noundef %22, ptr noundef %24, ptr noundef %5, ptr noundef %28, i32 noundef 512)
  %29 = load ptr, ptr %2, align 8, !tbaa !4
  %30 = call i32 @lj_lib_checkintrange(ptr noundef %29, i32 noundef 3, i32 noundef 0, i32 noundef 2147483392)
  store i32 %30, ptr %6, align 4, !tbaa !19
  call void @llvm.lifetime.end.p0(i64 8, ptr %7) #8
  br label %39

31:                                               ; preds = %1
  call void @llvm.lifetime.start.p0(i64 8, ptr %8) #8
  %32 = load ptr, ptr %2, align 8, !tbaa !4
  %33 = call ptr @lj_lib_checkstrx(ptr noundef %32, i32 noundef 2)
  store ptr %33, ptr %8, align 8, !tbaa !29
  %34 = load ptr, ptr %8, align 8, !tbaa !29
  %35 = getelementptr inbounds %struct.GCstr, ptr %34, i64 1
  store ptr %35, ptr %5, align 8, !tbaa !31
  %36 = load ptr, ptr %8, align 8, !tbaa !29
  %37 = getelementptr inbounds nuw %struct.GCstr, ptr %36, i32 0, i32 7
  %38 = load i32, ptr %37, align 4, !tbaa !32
  store i32 %38, ptr %6, align 4, !tbaa !19
  call void @llvm.lifetime.end.p0(i64 8, ptr %8) #8
  br label %39

39:                                               ; preds = %31, %19
  %40 = load ptr, ptr %2, align 8, !tbaa !4
  %41 = load ptr, ptr %3, align 8, !tbaa !9
  call void @lj_bufx_free(ptr noundef %40, ptr noundef %41)
  %42 = load ptr, ptr %2, align 8, !tbaa !4
  %43 = load ptr, ptr %3, align 8, !tbaa !9
  %44 = load ptr, ptr %5, align 8, !tbaa !31
  %45 = load i32, ptr %6, align 4, !tbaa !19
  call void @lj_bufx_set_cow(ptr noundef %42, ptr noundef %43, ptr noundef %44, i32 noundef %45)
  %46 = load ptr, ptr %2, align 8, !tbaa !4
  %47 = getelementptr inbounds nuw %struct.lua_State, ptr %46, i32 0, i32 7
  %48 = load ptr, ptr %47, align 8, !tbaa !11
  %49 = getelementptr inbounds %union.TValue, ptr %48, i64 1
  %50 = getelementptr inbounds nuw %struct.GCRef, ptr %49, i32 0, i32 0
  %51 = load i64, ptr %50, align 8, !tbaa !26
  %52 = and i64 %51, 140737488355327
  %53 = inttoptr i64 %52 to ptr
  store ptr %53, ptr %4, align 8, !tbaa !34
  %54 = load ptr, ptr %4, align 8, !tbaa !34
  %55 = ptrtoint ptr %54 to i64
  %56 = load ptr, ptr %3, align 8, !tbaa !9
  %57 = getelementptr inbounds nuw %struct.SBufExt, ptr %56, i32 0, i32 4
  %58 = getelementptr inbounds nuw %struct.GCRef, ptr %57, i32 0, i32 0
  store i64 %55, ptr %58, align 8, !tbaa !26
  %59 = load ptr, ptr %4, align 8, !tbaa !34
  %60 = getelementptr inbounds nuw %struct.GChead, ptr %59, i32 0, i32 1
  %61 = load i8, ptr %60, align 8, !tbaa !26
  %62 = zext i8 %61 to i32
  %63 = and i32 %62, 3
  %64 = icmp ne i32 %63, 0
  br i1 %64, label %65, label %82

65:                                               ; preds = %39
  %66 = load ptr, ptr %3, align 8, !tbaa !9
  %67 = getelementptr inbounds %struct.GCudata, ptr %66, i64 -1
  %68 = getelementptr inbounds nuw %struct.GChead, ptr %67, i32 0, i32 1
  %69 = load i8, ptr %68, align 8, !tbaa !26
  %70 = zext i8 %69 to i32
  %71 = and i32 %70, 4
  %72 = icmp ne i32 %71, 0
  br i1 %72, label %73, label %82

73:                                               ; preds = %65
  %74 = load ptr, ptr %2, align 8, !tbaa !4
  %75 = getelementptr inbounds nuw %struct.lua_State, ptr %74, i32 0, i32 5
  %76 = getelementptr inbounds nuw %struct.MRef, ptr %75, i32 0, i32 0
  %77 = load i64, ptr %76, align 8, !tbaa !36
  %78 = inttoptr i64 %77 to ptr
  %79 = load ptr, ptr %3, align 8, !tbaa !9
  %80 = getelementptr inbounds %struct.GCudata, ptr %79, i64 -1
  %81 = load ptr, ptr %4, align 8, !tbaa !34
  call void @lj_gc_barrierf(ptr noundef %78, ptr noundef %80, ptr noundef %81)
  br label %82

82:                                               ; preds = %73, %65, %39
  %83 = load ptr, ptr %2, align 8, !tbaa !4
  %84 = getelementptr inbounds nuw %struct.lua_State, ptr %83, i32 0, i32 7
  %85 = load ptr, ptr %84, align 8, !tbaa !11
  %86 = getelementptr inbounds %union.TValue, ptr %85, i64 1
  %87 = load ptr, ptr %2, align 8, !tbaa !4
  %88 = getelementptr inbounds nuw %struct.lua_State, ptr %87, i32 0, i32 8
  store ptr %86, ptr %88, align 8, !tbaa !18
  call void @llvm.lifetime.end.p0(i64 4, ptr %6) #8
  call void @llvm.lifetime.end.p0(i64 8, ptr %5) #8
  call void @llvm.lifetime.end.p0(i64 8, ptr %4) #8
  call void @llvm.lifetime.end.p0(i64 8, ptr %3) #8
  ret i32 1
}