; Function Attrs: nounwind uwtable
define internal noundef i32 @lj_cf_buffer_method_set(ptr noundef %0) #0 {
  %2 = alloca ptr, align 8
  %3 = getelementptr inbounds nuw i8, ptr %0, i64 32
  %4 = load ptr, ptr %3, align 8, !tbaa !4
  %5 = getelementptr inbounds nuw i8, ptr %0, i64 40
  %6 = load ptr, ptr %5, align 8, !tbaa !14
  %7 = icmp ult ptr %4, %6
  br i1 %7, label %8, label %17

8:                                                ; preds = %1
  %9 = load i64, ptr %4, align 8, !tbaa !15
  %.mask.i = and i64 %9, -140737488355328
  %10 = icmp eq i64 %.mask.i, -1829587348619264
  br i1 %10, label %11, label %17

11:                                               ; preds = %8
  %12 = and i64 %9, 140737488355327
  %13 = inttoptr i64 %12 to ptr
  %14 = getelementptr inbounds nuw i8, ptr %13, i64 10
  %15 = load i8, ptr %14, align 2, !tbaa !15
  %16 = icmp eq i8 %15, 3
  br i1 %16, label %buffer_tobuf.exit, label %17

17:                                               ; preds = %11, %8, %1
  tail call void @lj_err_argtype(ptr noundef nonnull %0, i32 noundef 1, ptr noundef nonnull @.str.2) #7
  unreachable

buffer_tobuf.exit:                                ; preds = %11
  %18 = getelementptr inbounds nuw i8, ptr %13, i64 48
  call void @llvm.lifetime.start.p0(i64 8, ptr nonnull %2) #6
  %19 = getelementptr inbounds nuw i8, ptr %4, i64 8
  %20 = load i64, ptr %19, align 8, !tbaa !15
  %.mask = and i64 %20, -140737488355328
  %21 = icmp eq i64 %.mask, -1548112371908608
  br i1 %21, label %22, label %33

22:                                               ; preds = %buffer_tobuf.exit
  %23 = getelementptr inbounds nuw i8, ptr %0, i64 16
  %24 = load i64, ptr %23, align 8, !tbaa !19
  %25 = inttoptr i64 %24 to ptr
  %26 = getelementptr inbounds nuw i8, ptr %25, i64 384
  %27 = load i64, ptr %26, align 8, !tbaa !36
  %28 = inttoptr i64 %27 to ptr
  %29 = getelementptr inbounds nuw i8, ptr %28, i64 16
  store ptr %0, ptr %29, align 8, !tbaa !37
  %30 = load ptr, ptr %28, align 8, !tbaa !46
  %31 = getelementptr inbounds nuw i8, ptr %30, i64 432
  call void @lj_cconv_ct_tv(ptr noundef nonnull %28, ptr noundef nonnull %31, ptr noundef nonnull %2, ptr noundef nonnull %19, i32 noundef 512) #6
  %32 = call i32 @lj_lib_checkintrange(ptr noundef nonnull %0, i32 noundef 3, i32 noundef 0, i32 noundef 2147483392) #6
  br label %38

33:                                               ; preds = %buffer_tobuf.exit
  %34 = tail call ptr @lj_lib_checkstrx(ptr noundef nonnull %0, i32 noundef 2) #6
  %35 = getelementptr inbounds nuw i8, ptr %34, i64 24
  store ptr %35, ptr %2, align 8, !tbaa !47
  %36 = getelementptr inbounds nuw i8, ptr %34, i64 20
  %37 = load i32, ptr %36, align 4, !tbaa !48
  br label %38

38:                                               ; preds = %33, %22
  %.0 = phi i32 [ %32, %22 ], [ %37, %33 ]
  %39 = getelementptr inbounds nuw i8, ptr %13, i64 72
  %40 = load i64, ptr %39, align 8, !tbaa !16
  %41 = and i64 %40, 6
  %.not.i = icmp eq i64 %41, 0
  br i1 %.not.i, label %42, label %lj_bufx_free.exit

42:                                               ; preds = %38
  %43 = getelementptr inbounds nuw i8, ptr %0, i64 16
  %44 = load i64, ptr %43, align 8, !tbaa !19
  %45 = inttoptr i64 %44 to ptr
  %46 = getelementptr inbounds nuw i8, ptr %13, i64 64
  %47 = load ptr, ptr %46, align 8, !tbaa !20
  %48 = getelementptr inbounds nuw i8, ptr %13, i64 56
  %49 = load ptr, ptr %48, align 8, !tbaa !21
  %50 = ptrtoint ptr %49 to i64
  %51 = ptrtoint ptr %47 to i64
  %52 = sub i64 %50, %51
  %53 = and i64 %52, 4294967295
  %54 = getelementptr inbounds nuw i8, ptr %45, i64 16
  %55 = load i64, ptr %54, align 8, !tbaa !22
  %56 = sub i64 %55, %53
  store i64 %56, ptr %54, align 8, !tbaa !22
  %57 = load ptr, ptr %45, align 8, !tbaa !32
  %58 = getelementptr inbounds nuw i8, ptr %45, i64 8
  %59 = load ptr, ptr %58, align 8, !tbaa !33
  %60 = call ptr %57(ptr noundef %59, ptr noundef %47, i64 noundef range(i64 0, 4294967296) %53, i64 noundef 0) #6
  br label %lj_bufx_free.exit

lj_bufx_free.exit:                                ; preds = %38, %42
  %61 = ptrtoint ptr %0 to i64
  %62 = getelementptr inbounds nuw i8, ptr %13, i64 80
  %63 = getelementptr inbounds nuw i8, ptr %13, i64 56
  %64 = getelementptr inbounds nuw i8, ptr %13, i64 64
  %65 = getelementptr inbounds nuw i8, ptr %13, i64 88
  store i64 0, ptr %62, align 8
  %66 = load ptr, ptr %2, align 8, !tbaa !47
  %67 = add i64 %61, 3
  store i64 %67, ptr %39, align 8, !tbaa !16
  store ptr %66, ptr %64, align 8, !tbaa !20
  store ptr %66, ptr %65, align 8, !tbaa !35
  %68 = zext i32 %.0 to i64
  %69 = getelementptr inbounds nuw i8, ptr %66, i64 %68
  store ptr %69, ptr %63, align 8, !tbaa !21
  store ptr %69, ptr %18, align 8, !tbaa !34
  %70 = load ptr, ptr %3, align 8, !tbaa !4
  %71 = getelementptr inbounds nuw i8, ptr %70, i64 8
  %72 = load i64, ptr %71, align 8, !tbaa !15
  %73 = and i64 %72, 140737488355327
  %74 = inttoptr i64 %73 to ptr
  store i64 %73, ptr %62, align 8, !tbaa !15
  %75 = getelementptr inbounds nuw i8, ptr %74, i64 8
  %76 = load i8, ptr %75, align 8, !tbaa !15
  %77 = and i8 %76, 3
  %.not = icmp eq i8 %77, 0
  br i1 %.not, label %86, label %78

78:                                               ; preds = %lj_bufx_free.exit
  %79 = getelementptr inbounds nuw i8, ptr %13, i64 8
  %80 = load i8, ptr %79, align 8, !tbaa !15
  %81 = and i8 %80, 4
  %.not24 = icmp eq i8 %81, 0
  br i1 %.not24, label %86, label %82

82:                                               ; preds = %78
  %83 = getelementptr inbounds nuw i8, ptr %0, i64 16
  %84 = load i64, ptr %83, align 8, !tbaa !19
  %85 = inttoptr i64 %84 to ptr
  call void @lj_gc_barrierf(ptr noundef %85, ptr noundef nonnull %13, ptr noundef nonnull %74) #6
  br label %86

86:                                               ; preds = %82, %78, %lj_bufx_free.exit
  %87 = load ptr, ptr %3, align 8, !tbaa !4
  %88 = getelementptr inbounds nuw i8, ptr %87, i64 8
  store ptr %88, ptr %5, align 8, !tbaa !14
  call void @llvm.lifetime.end.p0(i64 8, ptr nonnull %2) #6
  ret i32 1
}